target datalayout = "e-m:e-p270:32:32-p271:32:32-p272:64:64-i64:64-i128:128-f80:128-n8:16:32:64-S128"
target triple = "x86_64-pc-linux-gnu"

%"class.ceres::internal::Program" = type { %"class.std::vector", %"class.std::vector.1", ptr }
%"class.std::vector" = type { %"struct.std::_Vector_base" }
%"struct.std::_Vector_base" = type { %"struct.std::_Vector_base<ceres::internal::ParameterBlock *, std::allocator<ceres::internal::ParameterBlock *>>::_Vector_impl" }
%"struct.std::_Vector_base<ceres::internal::ParameterBlock *, std::allocator<ceres::internal::ParameterBlock *>>::_Vector_impl" = type { %"struct.std::_Vector_base<ceres::internal::ParameterBlock *, std::allocator<ceres::internal::ParameterBlock *>>::_Vector_impl_data" }
%"struct.std::_Vector_base<ceres::internal::ParameterBlock *, std::allocator<ceres::internal::ParameterBlock *>>::_Vector_impl_data" = type { ptr, ptr, ptr }
%"class.std::vector.1" = type { %"struct.std::_Vector_base.2" }
%"struct.std::_Vector_base.2" = type { %"struct.std::_Vector_base<ceres::internal::ResidualBlock *, std::allocator<ceres::internal::ResidualBlock *>>::_Vector_impl" }
%"struct.std::_Vector_base<ceres::internal::ResidualBlock *, std::allocator<ceres::internal::ResidualBlock *>>::_Vector_impl" = type { %"struct.std::_Vector_base<ceres::internal::ResidualBlock *, std::allocator<ceres::internal::ResidualBlock *>>::_Vector_impl_data" }
%"struct.std::_Vector_base<ceres::internal::ResidualBlock *, std::allocator<ceres::internal::ResidualBlock *>>::_Vector_impl_data" = type { ptr, ptr, ptr }

; Function Attrs: mustprogress nounwind uwtable
define linkonce_odr hidden noundef i64 @_ZNKSt6vectorIPN5ceres8internal13ResidualBlockESaIS3_EE4sizeEv(ptr noundef nonnull align 8 dereferenceable(24) %0) #1 comdat align 2 {
  %2 = alloca ptr, align 8
  store ptr %0, ptr %2, align 8, !tbaa !82
  %3 = load ptr, ptr %2, align 8
  %4 = getelementptr inbounds nuw %"struct.std::_Vector_base.2", ptr %3, i32 0, i32 0
  %5 = getelementptr inbounds nuw %"struct.std::_Vector_base<ceres::internal::ResidualBlock *, std::allocator<ceres::internal::ResidualBlock *>>::_Vector_impl_data", ptr %4, i32 0, i32 1
  %6 = load ptr, ptr %5, align 8, !tbaa !114
  %7 = getelementptr inbounds nuw %"struct.std::_Vector_base.2", ptr %3, i32 0, i32 0
  %8 = getelementptr inbounds nuw %"struct.std::_Vector_base<ceres::internal::ResidualBlock *, std::allocator<ceres::internal::ResidualBlock *>>::_Vector_impl_data", ptr %7, i32 0, i32 0
  %9 = load ptr, ptr %8, align 8, !tbaa !115
  %10 = ptrtoint ptr %6 to i64
  %11 = ptrtoint ptr %9 to i64
  %12 = sub i64 %10, %11
  %13 = sdiv exact i64 %12, 8
  ret i64 %13
}

; Function Attrs: mustprogress nounwind uwtable
define hidden noundef i32 @_ZNK5ceres8internal7Program17NumResidualBlocksEv(ptr noundef nonnull align 8 dereferenceable(56) %0) #1 align 2 {
  %2 = alloca ptr, align 8
  store ptr %0, ptr %2, align 8, !tbaa !14
  %3 = load ptr, ptr %2, align 8
  %4 = getelementptr inbounds nuw %"class.ceres::internal::Program", ptr %3, i32 0, i32 1
  %5 = call noundef i64 @_ZNKSt6vectorIPN5ceres8internal13ResidualBlockESaIS3_EE4sizeEv(ptr noundef nonnull align 8 dereferenceable(24) %4) #6
  %6 = trunc i64 %5 to i32
  ret i32 %6
}